; Function Attrs: mustprogress nofree norecurse nosync nounwind willreturn memory(none) uwtable
define internal noundef double @trc_smpte_st428_1_inv(double noundef %0) #0 {
  %2 = fcmp nsz olt double %0, 0.000000e+00
  br i1 %2, label %6, label %3

3:                                                ; preds = %1
  %4 = tail call nsz double @llvm.pow.f64(double %0, double 2.600000e+00)
  %5 = fmul nsz double %4, 0x3FF174E81B4E81B5
  br label %6

6:                                                ; preds = %1, %3
  %7 = phi nsz double [ %5, %3 ], [ 0.000000e+00, %1 ]
  ret double %7
}